; Function Attrs: null_pointer_is_valid sspstrong uwtable
define hidden i32 @lz4wfile_close(ptr noundef %0) local_unnamed_addr #0 {
  %2 = getelementptr inbounds nuw i8, ptr %0, i64 128
  %3 = load ptr, ptr %2, align 8
  %4 = getelementptr inbounds nuw i8, ptr %0, i64 48
  %5 = load ptr, ptr %4, align 8
  %6 = getelementptr inbounds nuw i8, ptr %0, i64 24
  %7 = load i64, ptr %6, align 8
  %8 = tail call i64 @LZ4F_compressEnd(ptr noundef %3, ptr noundef %5, i64 noundef %7, ptr noundef null)
  %9 = tail call i32 @LZ4F_isError(i64 noundef %8)
  %.not = icmp eq i32 %9, 0
  %spec.select = select i1 %.not, i32 0, i32 -21
  %.not.i = icmp eq i64 %8, 0
  br i1 %.not.i, label %lz4_write_out.exit.thread, label %10

10:                                               ; preds = %1
  %11 = load i32, ptr %0, align 8
  %12 = load ptr, ptr %4, align 8
  %13 = and i64 %8, 4294967295
  %14 = tail call i64 @write(i32 noundef %11, ptr noundef %12, i64 noundef %13)
  %15 = icmp slt i64 %14, 0
  br i1 %15, label %16, label %20

16:                                               ; preds = %10
  %17 = tail call ptr @__errno_location() #23
  %18 = load i32, ptr %17, align 4
  %19 = getelementptr inbounds nuw i8, ptr %0, i64 56
  store i32 %18, ptr %19, align 8
  br label %lz4_write_out.exit.thread

20:                                               ; preds = %10
  %21 = and i64 %14, 4294967295
  %.not15.i = icmp eq i64 %21, %8
  br i1 %.not15.i, label %24, label %22

22:                                               ; preds = %20
  %23 = getelementptr inbounds nuw i8, ptr %0, i64 56
  store i32 -14, ptr %23, align 8
  br label %lz4_write_out.exit.thread

24:                                               ; preds = %20
  %25 = getelementptr inbounds nuw i8, ptr %0, i64 16
  %26 = load i64, ptr %25, align 8
  %27 = add i64 %26, %14
  store i64 %27, ptr %25, align 8
  br label %lz4_write_out.exit.thread

lz4_write_out.exit.thread:                        ; preds = %16, %22, %1, %24
  %.1 = phi i32 [ %spec.select, %24 ], [ %spec.select, %1 ], [ -14, %22 ], [ %18, %16 ]
  %28 = load ptr, ptr %4, align 8
  tail call void @g_free(ptr noundef %28)
  %29 = load ptr, ptr %2, align 8
  %30 = tail call i64 @LZ4F_freeCompressionContext(ptr noundef %29)
  %31 = load i32, ptr %0, align 8
  %32 = tail call i32 @close(i32 noundef %31)
  %33 = icmp eq i32 %32, -1
  %34 = icmp eq i32 %.1, 0
  %or.cond = select i1 %33, i1 %34, i1 false
  br i1 %or.cond, label %35, label %38

35:                                               ; preds = %lz4_write_out.exit.thread
  %36 = tail call ptr @__errno_location() #23
  %37 = load i32, ptr %36, align 4
  br label %38

38:                                               ; preds = %35, %lz4_write_out.exit.thread
  %.2 = phi i32 [ %37, %35 ], [ %.1, %lz4_write_out.exit.thread ]
  tail call void @g_free(ptr noundef %0)
  ret i32 %.2
}